target datalayout = "e-m:e-p270:32:32-p271:32:32-p272:64:64-i64:64-i128:128-f80:128-n8:16:32:64-S128"
target triple = "x86_64-pc-linux-gnu"

@.str.6 = private unnamed_addr constant [16 x i8] c"%s:version:full\00", align 1
@prte_info_type_prte = external global ptr, align 8
@.str.7 = private unnamed_addr constant [8 x i8] c"ompi-a1\00", align 1
@.str.8 = private unnamed_addr constant [33 x i8] c"psrvr-v2.0.0rc1-4839-g30cadc6746\00", align 1
@.str.9 = private unnamed_addr constant [5 x i8] c"PRTE\00", align 1
@.str.10 = private unnamed_addr constant [16 x i8] c"%s:version:repo\00", align 1
@.str.11 = private unnamed_addr constant [19 x i8] c"PRTE repo revision\00", align 1
@.str.12 = private unnamed_addr constant [24 x i8] c"%s:version:release_date\00", align 1
@.str.13 = private unnamed_addr constant [18 x i8] c"PRTE release date\00", align 1
@.str.14 = private unnamed_addr constant [20 x i8] c"@PMIX_RELEASE_DATE@\00", align 1
@.str.15 = private unnamed_addr constant [5 x i8] c"PMIx\00", align 1
@.str.16 = private unnamed_addr constant [18 x i8] c"pmix:version:full\00", align 1

; Function Attrs: nounwind uwtable
define dso_local void @prte_info_show_prte_version(ptr noundef %0) #0 {
  %2 = alloca ptr, align 8
  %3 = alloca ptr, align 8
  %4 = alloca ptr, align 8
  store ptr %0, ptr %2, align 8, !tbaa !4
  call void @llvm.lifetime.start.p0(i64 8, ptr %3) #8
  call void @llvm.lifetime.start.p0(i64 8, ptr %4) #8
  %5 = load ptr, ptr @prte_info_type_prte, align 8, !tbaa !4
  %6 = call i32 (ptr, ptr, ...) @pmix_asprintf(ptr noundef %3, ptr noundef @.str.6, ptr noundef %5)
  %7 = load ptr, ptr %2, align 8, !tbaa !4
  %8 = call ptr @prte_util_make_version_string(ptr noundef %7, i32 noundef 4, i32 noundef 0, i32 noundef 0, ptr noundef @.str.7, ptr noundef @.str.8)
  store ptr %8, ptr %4, align 8, !tbaa !4
  %9 = load ptr, ptr %3, align 8, !tbaa !4
  %10 = load ptr, ptr %4, align 8, !tbaa !4
  call void @prte_info_out(ptr noundef @.str.9, ptr noundef %9, ptr noundef %10)
  %11 = load ptr, ptr %3, align 8, !tbaa !4
  call void @free(ptr noundef %11) #8
  %12 = load ptr, ptr %4, align 8, !tbaa !4
  call void @free(ptr noundef %12) #8
  %13 = load ptr, ptr @prte_info_type_prte, align 8, !tbaa !4
  %14 = call i32 (ptr, ptr, ...) @pmix_asprintf(ptr noundef %3, ptr noundef @.str.10, ptr noundef %13)
  %15 = load ptr, ptr %3, align 8, !tbaa !4
  call void @prte_info_out(ptr noundef @.str.11, ptr noundef %15, ptr noundef @.str.8)
  %16 = load ptr, ptr %3, align 8, !tbaa !4
  call void @free(ptr noundef %16) #8
  %17 = load ptr, ptr @prte_info_type_prte, align 8, !tbaa !4
  %18 = call i32 (ptr, ptr, ...) @pmix_asprintf(ptr noundef %3, ptr noundef @.str.12, ptr noundef %17)
  %19 = load ptr, ptr %3, align 8, !tbaa !4
  call void @prte_info_out(ptr noundef @.str.13, ptr noundef %19, ptr noundef @.str.14)
  %20 = load ptr, ptr %3, align 8, !tbaa !4
  call void @free(ptr noundef %20) #8
  %21 = call ptr @PMIx_Get_version()
  call void @prte_info_out(ptr noundef @.str.15, ptr noundef @.str.16, ptr noundef %21)
  call void @llvm.lifetime.end.p0(i64 8, ptr %4) #8
  call void @llvm.lifetime.end.p0(i64 8, ptr %3) #8
  ret void
}