; Function Attrs: nounwind uwtable
define dso_local void @prte_info_show_prte_version(ptr noundef %0) local_unnamed_addr #0 {
  %2 = alloca ptr, align 8
  call void @llvm.lifetime.start.p0(i64 8, ptr nonnull %2) #6
  %3 = load ptr, ptr @prte_info_type_prte, align 8, !tbaa !4
  %4 = call i32 (ptr, ptr, ...) @pmix_asprintf(ptr noundef nonnull %2, ptr noundef nonnull @.str.6, ptr noundef %3) #6
  %5 = call ptr @prte_util_make_version_string(ptr noundef %0, i32 noundef 4, i32 noundef 0, i32 noundef 0, ptr noundef nonnull @.str.7, ptr noundef nonnull @.str.8) #6
  %6 = load ptr, ptr %2, align 8, !tbaa !4
  call void @prte_info_out(ptr noundef nonnull @.str.9, ptr noundef %6, ptr noundef %5) #6
  %7 = load ptr, ptr %2, align 8, !tbaa !4
  call void @free(ptr noundef %7) #6
  call void @free(ptr noundef %5) #6
  %8 = load ptr, ptr @prte_info_type_prte, align 8, !tbaa !4
  %9 = call i32 (ptr, ptr, ...) @pmix_asprintf(ptr noundef nonnull %2, ptr noundef nonnull @.str.10, ptr noundef %8) #6
  %10 = load ptr, ptr %2, align 8, !tbaa !4
  call void @prte_info_out(ptr noundef nonnull @.str.11, ptr noundef %10, ptr noundef nonnull @.str.8) #6
  %11 = load ptr, ptr %2, align 8, !tbaa !4
  call void @free(ptr noundef %11) #6
  %12 = load ptr, ptr @prte_info_type_prte, align 8, !tbaa !4
  %13 = call i32 (ptr, ptr, ...) @pmix_asprintf(ptr noundef nonnull %2, ptr noundef nonnull @.str.12, ptr noundef %12) #6
  %14 = load ptr, ptr %2, align 8, !tbaa !4
  call void @prte_info_out(ptr noundef nonnull @.str.13, ptr noundef %14, ptr noundef nonnull @.str.14) #6
  %15 = load ptr, ptr %2, align 8, !tbaa !4
  call void @free(ptr noundef %15) #6
  %16 = call ptr @PMIx_Get_version() #6
  call void @prte_info_out(ptr noundef nonnull @.str.15, ptr noundef nonnull @.str.16, ptr noundef %16) #6
  call void @llvm.lifetime.end.p0(i64 8, ptr nonnull %2) #6
  ret void
}